
main-nopic-noplt-nopie:     file format elf32-i386


Disassembly of section .init:

08049000 <_init>:
 8049000:	f3 0f 1e fb          	endbr32 
 8049004:	53                   	push   ebx
 8049005:	83 ec 08             	sub    esp,0x8
 8049008:	e8 a3 00 00 00       	call   80490b0 <__x86.get_pc_thunk.bx>
 804900d:	81 c3 f3 2f 00 00    	add    ebx,0x2ff3
 8049013:	8b 83 fc ff ff ff    	mov    eax,DWORD PTR [ebx-0x4]
 8049019:	85 c0                	test   eax,eax
 804901b:	74 02                	je     804901f <_init+0x1f>
 804901d:	ff d0                	call   eax
 804901f:	83 c4 08             	add    esp,0x8
 8049022:	5b                   	pop    ebx
 8049023:	c3                   	ret    

Disassembly of section .plt:

08049030 <.plt>:
 8049030:	ff 35 04 c0 04 08    	push   DWORD PTR ds:0x804c004
 8049036:	ff 25 08 c0 04 08    	jmp    DWORD PTR ds:0x804c008
 804903c:	0f 1f 40 00          	nop    DWORD PTR [eax+0x0]
 8049040:	f3 0f 1e fb          	endbr32 
 8049044:	68 00 00 00 00       	push   0x0
 8049049:	e9 e2 ff ff ff       	jmp    8049030 <.plt>
 804904e:	66 90                	xchg   ax,ax

Disassembly of section .plt.sec:

08049050 <__libc_start_main@plt>:
 8049050:	f3 0f 1e fb          	endbr32 
 8049054:	ff 25 0c c0 04 08    	jmp    DWORD PTR ds:0x804c00c
 804905a:	66 0f 1f 44 00 00    	nop    WORD PTR [eax+eax*1+0x0]

Disassembly of section .text:

08049060 <_start>:
 8049060:	f3 0f 1e fb          	endbr32 
 8049064:	31 ed                	xor    ebp,ebp
 8049066:	5e                   	pop    esi
 8049067:	89 e1                	mov    ecx,esp
 8049069:	83 e4 f0             	and    esp,0xfffffff0
 804906c:	50                   	push   eax
 804906d:	54                   	push   esp
 804906e:	52                   	push   edx
 804906f:	e8 23 00 00 00       	call   8049097 <_start+0x37>
 8049074:	81 c3 8c 2f 00 00    	add    ebx,0x2f8c
 804907a:	8d 83 70 d2 ff ff    	lea    eax,[ebx-0x2d90]
 8049080:	50                   	push   eax
 8049081:	8d 83 00 d2 ff ff    	lea    eax,[ebx-0x2e00]
 8049087:	50                   	push   eax
 8049088:	51                   	push   ecx
 8049089:	56                   	push   esi
 804908a:	c7 c0 9c 91 04 08    	mov    eax,0x804919c
 8049090:	50                   	push   eax
 8049091:	e8 ba ff ff ff       	call   8049050 <__libc_start_main@plt>
 8049096:	f4                   	hlt    
 8049097:	8b 1c 24             	mov    ebx,DWORD PTR [esp]
 804909a:	c3                   	ret    
 804909b:	66 90                	xchg   ax,ax
 804909d:	66 90                	xchg   ax,ax
 804909f:	90                   	nop

080490a0 <_dl_relocate_static_pie>:
 80490a0:	f3 0f 1e fb          	endbr32 
 80490a4:	c3                   	ret    
 80490a5:	66 90                	xchg   ax,ax
 80490a7:	66 90                	xchg   ax,ax
 80490a9:	66 90                	xchg   ax,ax
 80490ab:	66 90                	xchg   ax,ax
 80490ad:	66 90                	xchg   ax,ax
 80490af:	90                   	nop

080490b0 <__x86.get_pc_thunk.bx>:
 80490b0:	8b 1c 24             	mov    ebx,DWORD PTR [esp]
 80490b3:	c3                   	ret    
 80490b4:	66 90                	xchg   ax,ax
 80490b6:	66 90                	xchg   ax,ax
 80490b8:	66 90                	xchg   ax,ax
 80490ba:	66 90                	xchg   ax,ax
 80490bc:	66 90                	xchg   ax,ax
 80490be:	66 90                	xchg   ax,ax

080490c0 <deregister_tm_clones>:
 80490c0:	b8 18 c0 04 08       	mov    eax,0x804c018
 80490c5:	3d 18 c0 04 08       	cmp    eax,0x804c018
 80490ca:	74 24                	je     80490f0 <deregister_tm_clones+0x30>
 80490cc:	b8 00 00 00 00       	mov    eax,0x0
 80490d1:	85 c0                	test   eax,eax
 80490d3:	74 1b                	je     80490f0 <deregister_tm_clones+0x30>
 80490d5:	55                   	push   ebp
 80490d6:	89 e5                	mov    ebp,esp
 80490d8:	83 ec 14             	sub    esp,0x14
 80490db:	68 18 c0 04 08       	push   0x804c018
 80490e0:	ff d0                	call   eax
 80490e2:	83 c4 10             	add    esp,0x10
 80490e5:	c9                   	leave  
 80490e6:	c3                   	ret    
 80490e7:	8d b4 26 00 00 00 00 	lea    esi,[esi+eiz*1+0x0]
 80490ee:	66 90                	xchg   ax,ax
 80490f0:	c3                   	ret    
 80490f1:	8d b4 26 00 00 00 00 	lea    esi,[esi+eiz*1+0x0]
 80490f8:	8d b4 26 00 00 00 00 	lea    esi,[esi+eiz*1+0x0]
 80490ff:	90                   	nop

08049100 <register_tm_clones>:
 8049100:	b8 18 c0 04 08       	mov    eax,0x804c018
 8049105:	2d 18 c0 04 08       	sub    eax,0x804c018
 804910a:	89 c2                	mov    edx,eax
 804910c:	c1 e8 1f             	shr    eax,0x1f
 804910f:	c1 fa 02             	sar    edx,0x2
 8049112:	01 d0                	add    eax,edx
 8049114:	d1 f8                	sar    eax,1
 8049116:	74 20                	je     8049138 <register_tm_clones+0x38>
 8049118:	ba 00 00 00 00       	mov    edx,0x0
 804911d:	85 d2                	test   edx,edx
 804911f:	74 17                	je     8049138 <register_tm_clones+0x38>
 8049121:	55                   	push   ebp
 8049122:	89 e5                	mov    ebp,esp
 8049124:	83 ec 10             	sub    esp,0x10
 8049127:	50                   	push   eax
 8049128:	68 18 c0 04 08       	push   0x804c018
 804912d:	ff d2                	call   edx
 804912f:	83 c4 10             	add    esp,0x10
 8049132:	c9                   	leave  
 8049133:	c3                   	ret    
 8049134:	8d 74 26 00          	lea    esi,[esi+eiz*1+0x0]
 8049138:	c3                   	ret    
 8049139:	8d b4 26 00 00 00 00 	lea    esi,[esi+eiz*1+0x0]

08049140 <__do_global_dtors_aux>:
 8049140:	f3 0f 1e fb          	endbr32 
 8049144:	80 3d 18 c0 04 08 00 	cmp    BYTE PTR ds:0x804c018,0x0
 804914b:	75 1b                	jne    8049168 <__do_global_dtors_aux+0x28>
 804914d:	55                   	push   ebp
 804914e:	89 e5                	mov    ebp,esp
 8049150:	83 ec 08             	sub    esp,0x8
 8049153:	e8 68 ff ff ff       	call   80490c0 <deregister_tm_clones>
 8049158:	c6 05 18 c0 04 08 01 	mov    BYTE PTR ds:0x804c018,0x1
 804915f:	c9                   	leave  
 8049160:	c3                   	ret    
 8049161:	8d b4 26 00 00 00 00 	lea    esi,[esi+eiz*1+0x0]
 8049168:	c3                   	ret    
 8049169:	8d b4 26 00 00 00 00 	lea    esi,[esi+eiz*1+0x0]

08049170 <frame_dummy>:
 8049170:	f3 0f 1e fb          	endbr32 
 8049174:	eb 8a                	jmp    8049100 <register_tm_clones>

08049176 <inc>:
 8049176:	f3 0f 1e fb          	endbr32 
 804917a:	55                   	push   ebp
 804917b:	89 e5                	mov    ebp,esp
 804917d:	8b 45 08             	mov    eax,DWORD PTR [ebp+0x8]
 8049180:	83 c0 01             	add    eax,0x1
 8049183:	5d                   	pop    ebp
 8049184:	c3                   	ret    

08049185 <dec>:
 8049185:	f3 0f 1e fb          	endbr32 
 8049189:	55                   	push   ebp
 804918a:	89 e5                	mov    ebp,esp
 804918c:	ff 75 08             	push   DWORD PTR [ebp+0x8]
 804918f:	e8 e2 ff ff ff       	call   8049176 <inc>
 8049194:	83 c4 04             	add    esp,0x4
 8049197:	83 e8 01             	sub    eax,0x1
 804919a:	c9                   	leave  
 804919b:	c3                   	ret    

0804919c <main>:
 804919c:	f3 0f 1e fb          	endbr32 
 80491a0:	8d 4c 24 04          	lea    ecx,[esp+0x4]
 80491a4:	83 e4 f0             	and    esp,0xfffffff0
 80491a7:	ff 71 fc             	push   DWORD PTR [ecx-0x4]
 80491aa:	55                   	push   ebp
 80491ab:	89 e5                	mov    ebp,esp
 80491ad:	51                   	push   ecx
 80491ae:	83 ec 14             	sub    esp,0x14
 80491b1:	c7 45 f4 05 00 00 00 	mov    DWORD PTR [ebp-0xc],0x5
 80491b8:	ff 75 f4             	push   DWORD PTR [ebp-0xc]
 80491bb:	e8 c5 ff ff ff       	call   8049185 <dec>
 80491c0:	83 c4 04             	add    esp,0x4
 80491c3:	a3 1c c0 04 08       	mov    ds:0x804c01c,eax
 80491c8:	a1 1c c0 04 08       	mov    eax,ds:0x804c01c
 80491cd:	50                   	push   eax
 80491ce:	e8 a3 ff ff ff       	call   8049176 <inc>
 80491d3:	83 c4 04             	add    esp,0x4
 80491d6:	a3 1c c0 04 08       	mov    ds:0x804c01c,eax
 80491db:	a1 1c c0 04 08       	mov    eax,ds:0x804c01c
 80491e0:	83 ec 08             	sub    esp,0x8
 80491e3:	50                   	push   eax
 80491e4:	68 08 a0 04 08       	push   0x804a008
 80491e9:	ff 15 f8 bf 04 08    	call   DWORD PTR ds:0x804bff8
 80491ef:	83 c4 10             	add    esp,0x10
 80491f2:	90                   	nop
 80491f3:	8b 4d fc             	mov    ecx,DWORD PTR [ebp-0x4]
 80491f6:	c9                   	leave  
 80491f7:	8d 61 fc             	lea    esp,[ecx-0x4]
 80491fa:	c3                   	ret    
 80491fb:	66 90                	xchg   ax,ax
 80491fd:	66 90                	xchg   ax,ax
 80491ff:	90                   	nop

08049200 <__libc_csu_init>:
 8049200:	f3 0f 1e fb          	endbr32 
 8049204:	55                   	push   ebp
 8049205:	e8 6b 00 00 00       	call   8049275 <__x86.get_pc_thunk.bp>
 804920a:	81 c5 f6 2d 00 00    	add    ebp,0x2df6
 8049210:	57                   	push   edi
 8049211:	56                   	push   esi
 8049212:	53                   	push   ebx
 8049213:	83 ec 0c             	sub    esp,0xc
 8049216:	89 eb                	mov    ebx,ebp
 8049218:	8b 7c 24 28          	mov    edi,DWORD PTR [esp+0x28]
 804921c:	e8 df fd ff ff       	call   8049000 <_init>
 8049221:	8d 9d 0c ff ff ff    	lea    ebx,[ebp-0xf4]
 8049227:	8d 85 08 ff ff ff    	lea    eax,[ebp-0xf8]
 804922d:	29 c3                	sub    ebx,eax
 804922f:	c1 fb 02             	sar    ebx,0x2
 8049232:	74 29                	je     804925d <__libc_csu_init+0x5d>
 8049234:	31 f6                	xor    esi,esi
 8049236:	8d b4 26 00 00 00 00 	lea    esi,[esi+eiz*1+0x0]
 804923d:	8d 76 00             	lea    esi,[esi+0x0]
 8049240:	83 ec 04             	sub    esp,0x4
 8049243:	57                   	push   edi
 8049244:	ff 74 24 2c          	push   DWORD PTR [esp+0x2c]
 8049248:	ff 74 24 2c          	push   DWORD PTR [esp+0x2c]
 804924c:	ff 94 b5 08 ff ff ff 	call   DWORD PTR [ebp+esi*4-0xf8]
 8049253:	83 c6 01             	add    esi,0x1
 8049256:	83 c4 10             	add    esp,0x10
 8049259:	39 f3                	cmp    ebx,esi
 804925b:	75 e3                	jne    8049240 <__libc_csu_init+0x40>
 804925d:	83 c4 0c             	add    esp,0xc
 8049260:	5b                   	pop    ebx
 8049261:	5e                   	pop    esi
 8049262:	5f                   	pop    edi
 8049263:	5d                   	pop    ebp
 8049264:	c3                   	ret    
 8049265:	8d b4 26 00 00 00 00 	lea    esi,[esi+eiz*1+0x0]
 804926c:	8d 74 26 00          	lea    esi,[esi+eiz*1+0x0]

08049270 <__libc_csu_fini>:
 8049270:	f3 0f 1e fb          	endbr32 
 8049274:	c3                   	ret    

08049275 <__x86.get_pc_thunk.bp>:
 8049275:	8b 2c 24             	mov    ebp,DWORD PTR [esp]
 8049278:	c3                   	ret    

Disassembly of section .fini:

0804927c <_fini>:
 804927c:	f3 0f 1e fb          	endbr32 
 8049280:	53                   	push   ebx
 8049281:	83 ec 08             	sub    esp,0x8
 8049284:	e8 27 fe ff ff       	call   80490b0 <__x86.get_pc_thunk.bx>
 8049289:	81 c3 77 2d 00 00    	add    ebx,0x2d77
 804928f:	83 c4 08             	add    esp,0x8
 8049292:	5b                   	pop    ebx
 8049293:	c3                   	ret    
