
main:     file format elf32-i386


Disassembly of section .init:

00001000 <_init>:
    1000:	f3 0f 1e fb          	endbr32 
    1004:	53                   	push   ebx
    1005:	83 ec 08             	sub    esp,0x8
    1008:	e8 c3 00 00 00       	call   10d0 <__x86.get_pc_thunk.bx>
    100d:	81 c3 cb 2f 00 00    	add    ebx,0x2fcb
    1013:	8b 83 1c 00 00 00    	mov    eax,DWORD PTR [ebx+0x1c]
    1019:	85 c0                	test   eax,eax
    101b:	74 02                	je     101f <_init+0x1f>
    101d:	ff d0                	call   eax
    101f:	83 c4 08             	add    esp,0x8
    1022:	5b                   	pop    ebx
    1023:	c3                   	ret    

Disassembly of section .plt:

00001030 <.plt>:
    1030:	ff b3 04 00 00 00    	push   DWORD PTR [ebx+0x4]
    1036:	ff a3 08 00 00 00    	jmp    DWORD PTR [ebx+0x8]
    103c:	0f 1f 40 00          	nop    DWORD PTR [eax+0x0]
    1040:	f3 0f 1e fb          	endbr32 
    1044:	68 00 00 00 00       	push   0x0
    1049:	e9 e2 ff ff ff       	jmp    1030 <.plt>
    104e:	66 90                	xchg   ax,ax
    1050:	f3 0f 1e fb          	endbr32 
    1054:	68 08 00 00 00       	push   0x8
    1059:	e9 d2 ff ff ff       	jmp    1030 <.plt>
    105e:	66 90                	xchg   ax,ax

Disassembly of section .plt.got:

00001060 <__cxa_finalize@plt>:
    1060:	f3 0f 1e fb          	endbr32 
    1064:	ff a3 18 00 00 00    	jmp    DWORD PTR [ebx+0x18]
    106a:	66 0f 1f 44 00 00    	nop    WORD PTR [eax+eax*1+0x0]

Disassembly of section .plt.sec:

00001070 <printf@plt>:
    1070:	f3 0f 1e fb          	endbr32 
    1074:	ff a3 0c 00 00 00    	jmp    DWORD PTR [ebx+0xc]
    107a:	66 0f 1f 44 00 00    	nop    WORD PTR [eax+eax*1+0x0]

00001080 <__libc_start_main@plt>:
    1080:	f3 0f 1e fb          	endbr32 
    1084:	ff a3 10 00 00 00    	jmp    DWORD PTR [ebx+0x10]
    108a:	66 0f 1f 44 00 00    	nop    WORD PTR [eax+eax*1+0x0]

Disassembly of section .text:

00001090 <_start>:
    1090:	f3 0f 1e fb          	endbr32 
    1094:	31 ed                	xor    ebp,ebp
    1096:	5e                   	pop    esi
    1097:	89 e1                	mov    ecx,esp
    1099:	83 e4 f0             	and    esp,0xfffffff0
    109c:	50                   	push   eax
    109d:	54                   	push   esp
    109e:	52                   	push   edx
    109f:	e8 22 00 00 00       	call   10c6 <_start+0x36>
    10a4:	81 c3 34 2f 00 00    	add    ebx,0x2f34
    10aa:	8d 83 28 d3 ff ff    	lea    eax,[ebx-0x2cd8]
    10b0:	50                   	push   eax
    10b1:	8d 83 b8 d2 ff ff    	lea    eax,[ebx-0x2d48]
    10b7:	50                   	push   eax
    10b8:	51                   	push   ecx
    10b9:	56                   	push   esi
    10ba:	ff b3 20 00 00 00    	push   DWORD PTR [ebx+0x20]
    10c0:	e8 bb ff ff ff       	call   1080 <__libc_start_main@plt>
    10c5:	f4                   	hlt    
    10c6:	8b 1c 24             	mov    ebx,DWORD PTR [esp]
    10c9:	c3                   	ret    
    10ca:	66 90                	xchg   ax,ax
    10cc:	66 90                	xchg   ax,ax
    10ce:	66 90                	xchg   ax,ax

000010d0 <__x86.get_pc_thunk.bx>:
    10d0:	8b 1c 24             	mov    ebx,DWORD PTR [esp]
    10d3:	c3                   	ret    
    10d4:	66 90                	xchg   ax,ax
    10d6:	66 90                	xchg   ax,ax
    10d8:	66 90                	xchg   ax,ax
    10da:	66 90                	xchg   ax,ax
    10dc:	66 90                	xchg   ax,ax
    10de:	66 90                	xchg   ax,ax

000010e0 <deregister_tm_clones>:
    10e0:	e8 e4 00 00 00       	call   11c9 <__x86.get_pc_thunk.dx>
    10e5:	81 c2 f3 2e 00 00    	add    edx,0x2ef3
    10eb:	8d 8a 30 00 00 00    	lea    ecx,[edx+0x30]
    10f1:	8d 82 30 00 00 00    	lea    eax,[edx+0x30]
    10f7:	39 c8                	cmp    eax,ecx
    10f9:	74 1d                	je     1118 <deregister_tm_clones+0x38>
    10fb:	8b 82 14 00 00 00    	mov    eax,DWORD PTR [edx+0x14]
    1101:	85 c0                	test   eax,eax
    1103:	74 13                	je     1118 <deregister_tm_clones+0x38>
    1105:	55                   	push   ebp
    1106:	89 e5                	mov    ebp,esp
    1108:	83 ec 14             	sub    esp,0x14
    110b:	51                   	push   ecx
    110c:	ff d0                	call   eax
    110e:	83 c4 10             	add    esp,0x10
    1111:	c9                   	leave  
    1112:	c3                   	ret    
    1113:	8d 74 26 00          	lea    esi,[esi+eiz*1+0x0]
    1117:	90                   	nop
    1118:	c3                   	ret    
    1119:	8d b4 26 00 00 00 00 	lea    esi,[esi+eiz*1+0x0]

00001120 <register_tm_clones>:
    1120:	e8 a4 00 00 00       	call   11c9 <__x86.get_pc_thunk.dx>
    1125:	81 c2 b3 2e 00 00    	add    edx,0x2eb3
    112b:	55                   	push   ebp
    112c:	89 e5                	mov    ebp,esp
    112e:	53                   	push   ebx
    112f:	8d 8a 30 00 00 00    	lea    ecx,[edx+0x30]
    1135:	8d 82 30 00 00 00    	lea    eax,[edx+0x30]
    113b:	83 ec 04             	sub    esp,0x4
    113e:	29 c8                	sub    eax,ecx
    1140:	89 c3                	mov    ebx,eax
    1142:	c1 e8 1f             	shr    eax,0x1f
    1145:	c1 fb 02             	sar    ebx,0x2
    1148:	01 d8                	add    eax,ebx
    114a:	d1 f8                	sar    eax,1
    114c:	74 14                	je     1162 <register_tm_clones+0x42>
    114e:	8b 92 24 00 00 00    	mov    edx,DWORD PTR [edx+0x24]
    1154:	85 d2                	test   edx,edx
    1156:	74 0a                	je     1162 <register_tm_clones+0x42>
    1158:	83 ec 08             	sub    esp,0x8
    115b:	50                   	push   eax
    115c:	51                   	push   ecx
    115d:	ff d2                	call   edx
    115f:	83 c4 10             	add    esp,0x10
    1162:	8b 5d fc             	mov    ebx,DWORD PTR [ebp-0x4]
    1165:	c9                   	leave  
    1166:	c3                   	ret    
    1167:	8d b4 26 00 00 00 00 	lea    esi,[esi+eiz*1+0x0]
    116e:	66 90                	xchg   ax,ax

00001170 <__do_global_dtors_aux>:
    1170:	f3 0f 1e fb          	endbr32 
    1174:	55                   	push   ebp
    1175:	89 e5                	mov    ebp,esp
    1177:	53                   	push   ebx
    1178:	e8 53 ff ff ff       	call   10d0 <__x86.get_pc_thunk.bx>
    117d:	81 c3 5b 2e 00 00    	add    ebx,0x2e5b
    1183:	83 ec 04             	sub    esp,0x4
    1186:	80 bb 30 00 00 00 00 	cmp    BYTE PTR [ebx+0x30],0x0
    118d:	75 27                	jne    11b6 <__do_global_dtors_aux+0x46>
    118f:	8b 83 18 00 00 00    	mov    eax,DWORD PTR [ebx+0x18]
    1195:	85 c0                	test   eax,eax
    1197:	74 11                	je     11aa <__do_global_dtors_aux+0x3a>
    1199:	83 ec 0c             	sub    esp,0xc
    119c:	ff b3 2c 00 00 00    	push   DWORD PTR [ebx+0x2c]
    11a2:	e8 b9 fe ff ff       	call   1060 <__cxa_finalize@plt>
    11a7:	83 c4 10             	add    esp,0x10
    11aa:	e8 31 ff ff ff       	call   10e0 <deregister_tm_clones>
    11af:	c6 83 30 00 00 00 01 	mov    BYTE PTR [ebx+0x30],0x1
    11b6:	8b 5d fc             	mov    ebx,DWORD PTR [ebp-0x4]
    11b9:	c9                   	leave  
    11ba:	c3                   	ret    
    11bb:	8d 74 26 00          	lea    esi,[esi+eiz*1+0x0]
    11bf:	90                   	nop

000011c0 <frame_dummy>:
    11c0:	f3 0f 1e fb          	endbr32 
    11c4:	e9 57 ff ff ff       	jmp    1120 <register_tm_clones>

000011c9 <__x86.get_pc_thunk.dx>:
    11c9:	8b 14 24             	mov    edx,DWORD PTR [esp]
    11cc:	c3                   	ret    

000011cd <inc>:
    11cd:	f3 0f 1e fb          	endbr32 
    11d1:	55                   	push   ebp
    11d2:	89 e5                	mov    ebp,esp
    11d4:	e8 a8 00 00 00       	call   1281 <__x86.get_pc_thunk.ax>
    11d9:	05 ff 2d 00 00       	add    eax,0x2dff
    11de:	8b 45 08             	mov    eax,DWORD PTR [ebp+0x8]
    11e1:	83 c0 01             	add    eax,0x1
    11e4:	5d                   	pop    ebp
    11e5:	c3                   	ret    

000011e6 <dec>:
    11e6:	f3 0f 1e fb          	endbr32 
    11ea:	55                   	push   ebp
    11eb:	89 e5                	mov    ebp,esp
    11ed:	e8 8f 00 00 00       	call   1281 <__x86.get_pc_thunk.ax>
    11f2:	05 e6 2d 00 00       	add    eax,0x2de6
    11f7:	ff 75 08             	push   DWORD PTR [ebp+0x8]
    11fa:	e8 ce ff ff ff       	call   11cd <inc>
    11ff:	83 c4 04             	add    esp,0x4
    1202:	83 e8 01             	sub    eax,0x1
    1205:	c9                   	leave  
    1206:	c3                   	ret    

00001207 <main>:
    1207:	f3 0f 1e fb          	endbr32 
    120b:	8d 4c 24 04          	lea    ecx,[esp+0x4]
    120f:	83 e4 f0             	and    esp,0xfffffff0
    1212:	ff 71 fc             	push   DWORD PTR [ecx-0x4]
    1215:	55                   	push   ebp
    1216:	89 e5                	mov    ebp,esp
    1218:	53                   	push   ebx
    1219:	51                   	push   ecx
    121a:	83 ec 10             	sub    esp,0x10
    121d:	e8 ae fe ff ff       	call   10d0 <__x86.get_pc_thunk.bx>
    1222:	81 c3 b6 2d 00 00    	add    ebx,0x2db6
    1228:	c7 45 f4 05 00 00 00 	mov    DWORD PTR [ebp-0xc],0x5
    122f:	ff 75 f4             	push   DWORD PTR [ebp-0xc]
    1232:	e8 af ff ff ff       	call   11e6 <dec>
    1237:	83 c4 04             	add    esp,0x4
    123a:	8d 93 34 00 00 00    	lea    edx,[ebx+0x34]
    1240:	89 02                	mov    DWORD PTR [edx],eax
    1242:	8d 83 34 00 00 00    	lea    eax,[ebx+0x34]
    1248:	8b 00                	mov    eax,DWORD PTR [eax]
    124a:	50                   	push   eax
    124b:	e8 7d ff ff ff       	call   11cd <inc>
    1250:	83 c4 04             	add    esp,0x4
    1253:	8d 93 34 00 00 00    	lea    edx,[ebx+0x34]
    1259:	89 02                	mov    DWORD PTR [edx],eax
    125b:	8d 83 34 00 00 00    	lea    eax,[ebx+0x34]
    1261:	8b 00                	mov    eax,DWORD PTR [eax]
    1263:	83 ec 08             	sub    esp,0x8
    1266:	50                   	push   eax
    1267:	8d 83 30 e0 ff ff    	lea    eax,[ebx-0x1fd0]
    126d:	50                   	push   eax
    126e:	e8 fd fd ff ff       	call   1070 <printf@plt>
    1273:	83 c4 10             	add    esp,0x10
    1276:	90                   	nop
    1277:	8d 65 f8             	lea    esp,[ebp-0x8]
    127a:	59                   	pop    ecx
    127b:	5b                   	pop    ebx
    127c:	5d                   	pop    ebp
    127d:	8d 61 fc             	lea    esp,[ecx-0x4]
    1280:	c3                   	ret    

00001281 <__x86.get_pc_thunk.ax>:
    1281:	8b 04 24             	mov    eax,DWORD PTR [esp]
    1284:	c3                   	ret    
    1285:	66 90                	xchg   ax,ax
    1287:	66 90                	xchg   ax,ax
    1289:	66 90                	xchg   ax,ax
    128b:	66 90                	xchg   ax,ax
    128d:	66 90                	xchg   ax,ax
    128f:	90                   	nop

00001290 <__libc_csu_init>:
    1290:	f3 0f 1e fb          	endbr32 
    1294:	55                   	push   ebp
    1295:	e8 6b 00 00 00       	call   1305 <__x86.get_pc_thunk.bp>
    129a:	81 c5 3e 2d 00 00    	add    ebp,0x2d3e
    12a0:	57                   	push   edi
    12a1:	56                   	push   esi
    12a2:	53                   	push   ebx
    12a3:	83 ec 0c             	sub    esp,0xc
    12a6:	89 eb                	mov    ebx,ebp
    12a8:	8b 7c 24 28          	mov    edi,DWORD PTR [esp+0x28]
    12ac:	e8 4f fd ff ff       	call   1000 <_init>
    12b1:	8d 9d 04 ff ff ff    	lea    ebx,[ebp-0xfc]
    12b7:	8d 85 00 ff ff ff    	lea    eax,[ebp-0x100]
    12bd:	29 c3                	sub    ebx,eax
    12bf:	c1 fb 02             	sar    ebx,0x2
    12c2:	74 29                	je     12ed <__libc_csu_init+0x5d>
    12c4:	31 f6                	xor    esi,esi
    12c6:	8d b4 26 00 00 00 00 	lea    esi,[esi+eiz*1+0x0]
    12cd:	8d 76 00             	lea    esi,[esi+0x0]
    12d0:	83 ec 04             	sub    esp,0x4
    12d3:	57                   	push   edi
    12d4:	ff 74 24 2c          	push   DWORD PTR [esp+0x2c]
    12d8:	ff 74 24 2c          	push   DWORD PTR [esp+0x2c]
    12dc:	ff 94 b5 00 ff ff ff 	call   DWORD PTR [ebp+esi*4-0x100]
    12e3:	83 c6 01             	add    esi,0x1
    12e6:	83 c4 10             	add    esp,0x10
    12e9:	39 f3                	cmp    ebx,esi
    12eb:	75 e3                	jne    12d0 <__libc_csu_init+0x40>
    12ed:	83 c4 0c             	add    esp,0xc
    12f0:	5b                   	pop    ebx
    12f1:	5e                   	pop    esi
    12f2:	5f                   	pop    edi
    12f3:	5d                   	pop    ebp
    12f4:	c3                   	ret    
    12f5:	8d b4 26 00 00 00 00 	lea    esi,[esi+eiz*1+0x0]
    12fc:	8d 74 26 00          	lea    esi,[esi+eiz*1+0x0]

00001300 <__libc_csu_fini>:
    1300:	f3 0f 1e fb          	endbr32 
    1304:	c3                   	ret    

00001305 <__x86.get_pc_thunk.bp>:
    1305:	8b 2c 24             	mov    ebp,DWORD PTR [esp]
    1308:	c3                   	ret    

Disassembly of section .fini:

0000130c <_fini>:
    130c:	f3 0f 1e fb          	endbr32 
    1310:	53                   	push   ebx
    1311:	83 ec 08             	sub    esp,0x8
    1314:	e8 b7 fd ff ff       	call   10d0 <__x86.get_pc_thunk.bx>
    1319:	81 c3 bf 2c 00 00    	add    ebx,0x2cbf
    131f:	83 c4 08             	add    esp,0x8
    1322:	5b                   	pop    ebx
    1323:	c3                   	ret    
